; ModuleID = '5/230.c'
source_filename = "5/230.c"
target datalayout = "e-m:e-p270:32:32-p271:32:32-p272:64:64-i64:64-f80:128-n8:16:32:64-S128"
target triple = "x86_64-pc-linux-gnu"

@.str = private unnamed_addr constant [4 x i8] c"%lf\00", align 1
@.str.1 = private unnamed_addr constant [3 x i8] c"%s\00", align 1
@.str.2 = private unnamed_addr constant [6 x i8] c"error\00", align 1
@.str.3 = private unnamed_addr constant [4 x i8] c"yes\00", align 1
@.str.4 = private unnamed_addr constant [3 x i8] c"no\00", align 1

; Function Attrs: noinline nounwind uwtable
define dso_local i32 @main() #0 {
  %1 = alloca i32, align 4
  %2 = alloca i32, align 4
  %3 = alloca i32, align 4
  %4 = alloca i32, align 4
  %5 = alloca i32, align 4
  %6 = alloca i32, align 4
  %7 = alloca double, align 8
  %8 = alloca double, align 8
  %9 = alloca [2 x [501 x i8]], align 16
  store i32 0, i32* %1, align 4
  store i32 0, i32* %6, align 4
  %10 = call i32 (i8*, ...) @__isoc99_scanf(i8* getelementptr inbounds ([4 x i8], [4 x i8]* @.str, i64 0, i64 0), double* %8)
  store i32 0, i32* %2, align 4
  br label %11

11:                                               ; preds = %20, %0
  %12 = load i32, i32* %2, align 4
  %13 = icmp slt i32 %12, 2
  br i1 %13, label %14, label %23

14:                                               ; preds = %11
  %15 = load i32, i32* %2, align 4
  %16 = sext i32 %15 to i64
  %17 = getelementptr inbounds [2 x [501 x i8]], [2 x [501 x i8]]* %9, i64 0, i64 %16
  %18 = getelementptr inbounds [501 x i8], [501 x i8]* %17, i64 0, i64 0
  %19 = call i32 (i8*, ...) @__isoc99_scanf(i8* getelementptr inbounds ([3 x i8], [3 x i8]* @.str.1, i64 0, i64 0), i8* %18)
  br label %20

20:                                               ; preds = %14
  %21 = load i32, i32* %2, align 4
  %22 = add nsw i32 %21, 1
  store i32 %22, i32* %2, align 4
  br label %11

23:                                               ; preds = %11
  %24 = getelementptr inbounds [2 x [501 x i8]], [2 x [501 x i8]]* %9, i64 0, i64 0
  %25 = getelementptr inbounds [501 x i8], [501 x i8]* %24, i64 0, i64 0
  %26 = call i64 @strlen(i8* %25) #3
  %27 = trunc i64 %26 to i32
  store i32 %27, i32* %5, align 4
  %28 = getelementptr inbounds [2 x [501 x i8]], [2 x [501 x i8]]* %9, i64 0, i64 1
  %29 = getelementptr inbounds [501 x i8], [501 x i8]* %28, i64 0, i64 0
  %30 = call i64 @strlen(i8* %29) #3
  %31 = trunc i64 %30 to i32
  store i32 %31, i32* %4, align 4
  %32 = load i32, i32* %4, align 4
  %33 = load i32, i32* %5, align 4
  %34 = icmp ne i32 %32, %33
  br i1 %34, label %35, label %37

35:                                               ; preds = %23
  %36 = call i32 (i8*, ...) @printf(i8* getelementptr inbounds ([6 x i8], [6 x i8]* @.str.2, i64 0, i64 0))
  store i32 0, i32* %1, align 4
  br label %137

37:                                               ; preds = %23
  store i32 0, i32* %3, align 4
  br label %38

38:                                               ; preds = %93, %37
  %39 = load i32, i32* %3, align 4
  %40 = icmp slt i32 %39, 2
  br i1 %40, label %41, label %96

41:                                               ; preds = %38
  store i32 0, i32* %2, align 4
  br label %42

42:                                               ; preds = %89, %41
  %43 = load i32, i32* %2, align 4
  %44 = load i32, i32* %4, align 4
  %45 = icmp slt i32 %43, %44
  br i1 %45, label %46, label %92

46:                                               ; preds = %42
  %47 = load i32, i32* %3, align 4
  %48 = sext i32 %47 to i64
  %49 = getelementptr inbounds [2 x [501 x i8]], [2 x [501 x i8]]* %9, i64 0, i64 %48
  %50 = load i32, i32* %2, align 4
  %51 = sext i32 %50 to i64
  %52 = getelementptr inbounds [501 x i8], [501 x i8]* %49, i64 0, i64 %51
  %53 = load i8, i8* %52, align 1
  %54 = sext i8 %53 to i32
  %55 = icmp ne i32 %54, 65
  br i1 %55, label %56, label %88

56:                                               ; preds = %46
  %57 = load i32, i32* %3, align 4
  %58 = sext i32 %57 to i64
  %59 = getelementptr inbounds [2 x [501 x i8]], [2 x [501 x i8]]* %9, i64 0, i64 %58
  %60 = load i32, i32* %2, align 4
  %61 = sext i32 %60 to i64
  %62 = getelementptr inbounds [501 x i8], [501 x i8]* %59, i64 0, i64 %61
  %63 = load i8, i8* %62, align 1
  %64 = sext i8 %63 to i32
  %65 = icmp ne i32 %64, 84
  br i1 %65, label %66, label %88

66:                                               ; preds = %56
  %67 = load i32, i32* %3, align 4
  %68 = sext i32 %67 to i64
  %69 = getelementptr inbounds [2 x [501 x i8]], [2 x [501 x i8]]* %9, i64 0, i64 %68
  %70 = load i32, i32* %2, align 4
  %71 = sext i32 %70 to i64
  %72 = getelementptr inbounds [501 x i8], [501 x i8]* %69, i64 0, i64 %71
  %73 = load i8, i8* %72, align 1
  %74 = sext i8 %73 to i32
  %75 = icmp ne i32 %74, 67
  br i1 %75, label %76, label %88

76:                                               ; preds = %66
  %77 = load i32, i32* %3, align 4
  %78 = sext i32 %77 to i64
  %79 = getelementptr inbounds [2 x [501 x i8]], [2 x [501 x i8]]* %9, i64 0, i64 %78
  %80 = load i32, i32* %2, align 4
  %81 = sext i32 %80 to i64
  %82 = getelementptr inbounds [501 x i8], [501 x i8]* %79, i64 0, i64 %81
  %83 = load i8, i8* %82, align 1
  %84 = sext i8 %83 to i32
  %85 = icmp ne i32 %84, 71
  br i1 %85, label %86, label %88

86:                                               ; preds = %76
  %87 = call i32 (i8*, ...) @printf(i8* getelementptr inbounds ([6 x i8], [6 x i8]* @.str.2, i64 0, i64 0))
  store i32 0, i32* %1, align 4
  br label %137

88:                                               ; preds = %76, %66, %56, %46
  br label %89

89:                                               ; preds = %88
  %90 = load i32, i32* %2, align 4
  %91 = add nsw i32 %90, 1
  store i32 %91, i32* %2, align 4
  br label %42

92:                                               ; preds = %42
  br label %93

93:                                               ; preds = %92
  %94 = load i32, i32* %3, align 4
  %95 = add nsw i32 %94, 1
  store i32 %95, i32* %3, align 4
  br label %38

96:                                               ; preds = %38
  store i32 0, i32* %2, align 4
  br label %97

97:                                               ; preds = %119, %96
  %98 = load i32, i32* %2, align 4
  %99 = load i32, i32* %4, align 4
  %100 = icmp slt i32 %98, %99
  br i1 %100, label %101, label %122

101:                                              ; preds = %97
  %102 = getelementptr inbounds [2 x [501 x i8]], [2 x [501 x i8]]* %9, i64 0, i64 0
  %103 = load i32, i32* %2, align 4
  %104 = sext i32 %103 to i64
  %105 = getelementptr inbounds [501 x i8], [501 x i8]* %102, i64 0, i64 %104
  %106 = load i8, i8* %105, align 1
  %107 = sext i8 %106 to i32
  %108 = getelementptr inbounds [2 x [501 x i8]], [2 x [501 x i8]]* %9, i64 0, i64 1
  %109 = load i32, i32* %2, align 4
  %110 = sext i32 %109 to i64
  %111 = getelementptr inbounds [501 x i8], [501 x i8]* %108, i64 0, i64 %110
  %112 = load i8, i8* %111, align 1
  %113 = sext i8 %112 to i32
  %114 = icmp eq i32 %107, %113
  br i1 %114, label %115, label %118

115:                                              ; preds = %101
  %116 = load i32, i32* %6, align 4
  %117 = add nsw i32 %116, 1
  store i32 %117, i32* %6, align 4
  br label %118

118:                                              ; preds = %115, %101
  br label %119

119:                                              ; preds = %118
  %120 = load i32, i32* %2, align 4
  %121 = add nsw i32 %120, 1
  store i32 %121, i32* %2, align 4
  br label %97

122:                                              ; preds = %97
  %123 = load i32, i32* %6, align 4
  %124 = sitofp i32 %123 to double
  %125 = fmul double 1.000000e+00, %124
  %126 = load i32, i32* %4, align 4
  %127 = sitofp i32 %126 to double
  %128 = fdiv double %125, %127
  store double %128, double* %7, align 8
  %129 = load double, double* %7, align 8
  %130 = load double, double* %8, align 8
  %131 = fcmp ogt double %129, %130
  br i1 %131, label %132, label %134

132:                                              ; preds = %122
  %133 = call i32 (i8*, ...) @printf(i8* getelementptr inbounds ([4 x i8], [4 x i8]* @.str.3, i64 0, i64 0))
  br label %136

134:                                              ; preds = %122
  %135 = call i32 (i8*, ...) @printf(i8* getelementptr inbounds ([3 x i8], [3 x i8]* @.str.4, i64 0, i64 0))
  br label %136

136:                                              ; preds = %134, %132
  store i32 0, i32* %1, align 4
  br label %137

137:                                              ; preds = %136, %86, %35
  %138 = load i32, i32* %1, align 4
  ret i32 %138
}

declare dso_local i32 @__isoc99_scanf(i8*, ...) #1

; Function Attrs: nounwind readonly
declare dso_local i64 @strlen(i8*) #2

declare dso_local i32 @printf(i8*, ...) #1


!llvm.module.flags = !{!0}
!llvm.ident = !{!1}

!0 = !{i32 1, !"wchar_size", i32 4}
!1 = !{!"clang version 10.0.0-4ubuntu1 "}
