; ModuleID = 'source-C-CXX/4/230.c'
source_filename = "source-C-CXX/4/230.c"
target datalayout = "e-m:e-p270:32:32-p271:32:32-p272:64:64-i64:64-f80:128-n8:16:32:64-S128"
target triple = "x86_64-pc-linux-gnu"

@.str = private unnamed_addr constant [4 x i8] c"%lf\00", align 1
@.str.1 = private unnamed_addr constant [3 x i8] c"%s\00", align 1
@.str.2 = private unnamed_addr constant [6 x i8] c"error\00", align 1
@.str.3 = private unnamed_addr constant [4 x i8] c"yes\00", align 1
@.str.4 = private unnamed_addr constant [3 x i8] c"no\00", align 1

; Function Attrs: nofree nounwind sspstrong uwtable
define dso_local i32 @main() local_unnamed_addr #0 {
  %1 = alloca double, align 8
  %2 = alloca [2 x [501 x i8]], align 16
  %3 = bitcast double* %1 to i8*
  call void @llvm.lifetime.start.p0i8(i64 8, i8* nonnull %3) #5
  %4 = getelementptr inbounds [2 x [501 x i8]], [2 x [501 x i8]]* %2, i64 0, i64 0, i64 0
  call void @llvm.lifetime.start.p0i8(i64 1002, i8* nonnull %4) #5
  %5 = call i32 (i8*, ...) @__isoc99_scanf(i8* getelementptr inbounds ([4 x i8], [4 x i8]* @.str, i64 0, i64 0), double* nonnull %1)
  %6 = call i32 (i8*, ...) @__isoc99_scanf(i8* getelementptr inbounds ([3 x i8], [3 x i8]* @.str.1, i64 0, i64 0), i8* nonnull %4)
  %7 = getelementptr inbounds [2 x [501 x i8]], [2 x [501 x i8]]* %2, i64 0, i64 1, i64 0
  %8 = call i32 (i8*, ...) @__isoc99_scanf(i8* getelementptr inbounds ([3 x i8], [3 x i8]* @.str.1, i64 0, i64 0), i8* nonnull %7)
  %9 = call i64 @strlen(i8* noundef nonnull %4) #6
  %10 = trunc i64 %9 to i32
  %11 = call i64 @strlen(i8* noundef nonnull %7) #6
  %12 = trunc i64 %11 to i32
  %13 = icmp eq i32 %12, %10
  br i1 %13, label %14, label %85

14:                                               ; preds = %0
  %15 = icmp sgt i32 %10, 0
  br i1 %15, label %16, label %78

16:                                               ; preds = %14
  %17 = and i64 %9, 4294967295
  br label %18

18:                                               ; preds = %16, %22
  %19 = phi i64 [ 0, %16 ], [ %23, %22 ]
  %20 = getelementptr inbounds [2 x [501 x i8]], [2 x [501 x i8]]* %2, i64 0, i64 0, i64 %19
  %21 = load i8, i8* %20, align 1, !tbaa !5
  switch i8 %21, label %85 [
    i8 65, label %22
    i8 84, label %22
    i8 67, label %22
    i8 71, label %22
  ]

22:                                               ; preds = %18, %18, %18, %18
  %23 = add nuw nsw i64 %19, 1
  %24 = icmp eq i64 %23, %17
  br i1 %24, label %88, label %18, !llvm.loop !8

25:                                               ; preds = %92
  br i1 %15, label %26, label %78

26:                                               ; preds = %25
  %27 = and i64 %9, 4294967295
  %28 = icmp ult i64 %27, 8
  br i1 %28, label %60, label %29

29:                                               ; preds = %26
  %30 = and i64 %9, 7
  %31 = sub nsw i64 %27, %30
  br label %32

32:                                               ; preds = %32, %29
  %33 = phi i64 [ 0, %29 ], [ %54, %32 ]
  %34 = phi <4 x i32> [ zeroinitializer, %29 ], [ %52, %32 ]
  %35 = phi <4 x i32> [ zeroinitializer, %29 ], [ %53, %32 ]
  %36 = getelementptr inbounds [2 x [501 x i8]], [2 x [501 x i8]]* %2, i64 0, i64 0, i64 %33
  %37 = bitcast i8* %36 to <4 x i8>*
  %38 = load <4 x i8>, <4 x i8>* %37, align 8, !tbaa !5
  %39 = getelementptr inbounds i8, i8* %36, i64 4
  %40 = bitcast i8* %39 to <4 x i8>*
  %41 = load <4 x i8>, <4 x i8>* %40, align 4, !tbaa !5
  %42 = getelementptr inbounds [2 x [501 x i8]], [2 x [501 x i8]]* %2, i64 0, i64 1, i64 %33
  %43 = bitcast i8* %42 to <4 x i8>*
  %44 = load <4 x i8>, <4 x i8>* %43, align 1, !tbaa !5
  %45 = getelementptr inbounds i8, i8* %42, i64 4
  %46 = bitcast i8* %45 to <4 x i8>*
  %47 = load <4 x i8>, <4 x i8>* %46, align 1, !tbaa !5
  %48 = icmp eq <4 x i8> %38, %44
  %49 = icmp eq <4 x i8> %41, %47
  %50 = zext <4 x i1> %48 to <4 x i32>
  %51 = zext <4 x i1> %49 to <4 x i32>
  %52 = add <4 x i32> %34, %50
  %53 = add <4 x i32> %35, %51
  %54 = add nuw i64 %33, 8
  %55 = icmp eq i64 %54, %31
  br i1 %55, label %56, label %32, !llvm.loop !10

56:                                               ; preds = %32
  %57 = add <4 x i32> %53, %52
  %58 = call i32 @llvm.vector.reduce.add.v4i32(<4 x i32> %57)
  %59 = icmp eq i64 %30, 0
  br i1 %59, label %75, label %60

60:                                               ; preds = %26, %56
  %61 = phi i64 [ 0, %26 ], [ %31, %56 ]
  %62 = phi i32 [ 0, %26 ], [ %58, %56 ]
  br label %63

63:                                               ; preds = %60, %63
  %64 = phi i64 [ %73, %63 ], [ %61, %60 ]
  %65 = phi i32 [ %72, %63 ], [ %62, %60 ]
  %66 = getelementptr inbounds [2 x [501 x i8]], [2 x [501 x i8]]* %2, i64 0, i64 0, i64 %64
  %67 = load i8, i8* %66, align 1, !tbaa !5
  %68 = getelementptr inbounds [2 x [501 x i8]], [2 x [501 x i8]]* %2, i64 0, i64 1, i64 %64
  %69 = load i8, i8* %68, align 1, !tbaa !5
  %70 = icmp eq i8 %67, %69
  %71 = zext i1 %70 to i32
  %72 = add nuw nsw i32 %65, %71
  %73 = add nuw nsw i64 %64, 1
  %74 = icmp eq i64 %73, %27
  br i1 %74, label %75, label %63, !llvm.loop !12

75:                                               ; preds = %63, %56
  %76 = phi i32 [ %58, %56 ], [ %72, %63 ]
  %77 = sitofp i32 %76 to double
  br label %78

78:                                               ; preds = %14, %75, %25
  %79 = phi double [ 0.000000e+00, %25 ], [ %77, %75 ], [ 0.000000e+00, %14 ]
  %80 = sitofp i32 %10 to double
  %81 = fdiv double %79, %80
  %82 = load double, double* %1, align 8, !tbaa !14
  %83 = fcmp ogt double %81, %82
  %84 = select i1 %83, i8* getelementptr inbounds ([4 x i8], [4 x i8]* @.str.3, i64 0, i64 0), i8* getelementptr inbounds ([3 x i8], [3 x i8]* @.str.4, i64 0, i64 0)
  br label %85

85:                                               ; preds = %18, %88, %78, %0
  %86 = phi i8* [ getelementptr inbounds ([6 x i8], [6 x i8]* @.str.2, i64 0, i64 0), %0 ], [ %84, %78 ], [ getelementptr inbounds ([6 x i8], [6 x i8]* @.str.2, i64 0, i64 0), %88 ], [ getelementptr inbounds ([6 x i8], [6 x i8]* @.str.2, i64 0, i64 0), %18 ]
  %87 = call i32 (i8*, ...) @printf(i8* nonnull dereferenceable(1) %86)
  call void @llvm.lifetime.end.p0i8(i64 1002, i8* nonnull %4) #5
  call void @llvm.lifetime.end.p0i8(i64 8, i8* nonnull %3) #5
  ret i32 0

88:                                               ; preds = %22, %92
  %89 = phi i64 [ %93, %92 ], [ 0, %22 ]
  %90 = getelementptr inbounds [2 x [501 x i8]], [2 x [501 x i8]]* %2, i64 0, i64 1, i64 %89
  %91 = load i8, i8* %90, align 1, !tbaa !5
  switch i8 %91, label %85 [
    i8 65, label %92
    i8 84, label %92
    i8 67, label %92
    i8 71, label %92
  ]

92:                                               ; preds = %88, %88, %88, %88
  %93 = add nuw nsw i64 %89, 1
  %94 = icmp eq i64 %93, %17
  br i1 %94, label %25, label %88, !llvm.loop !8
}

; Function Attrs: argmemonly mustprogress nofree nosync nounwind willreturn
declare void @llvm.lifetime.start.p0i8(i64 immarg, i8* nocapture) #1

; Function Attrs: nofree nounwind
declare noundef i32 @__isoc99_scanf(i8* nocapture noundef readonly, ...) local_unnamed_addr #2

; Function Attrs: argmemonly mustprogress nofree nounwind readonly willreturn
declare i64 @strlen(i8* nocapture) local_unnamed_addr #3

; Function Attrs: nofree nounwind
declare noundef i32 @printf(i8* nocapture noundef readonly, ...) local_unnamed_addr #2

; Function Attrs: argmemonly mustprogress nofree nosync nounwind willreturn
declare void @llvm.lifetime.end.p0i8(i64 immarg, i8* nocapture) #1

; Function Attrs: nofree nosync nounwind readnone willreturn
declare i32 @llvm.vector.reduce.add.v4i32(<4 x i32>) #4


!llvm.module.flags = !{!0, !1, !2, !3}
!llvm.ident = !{!4}

!0 = !{i32 1, !"wchar_size", i32 4}
!1 = !{i32 7, !"PIC Level", i32 2}
!2 = !{i32 7, !"PIE Level", i32 2}
!3 = !{i32 7, !"uwtable", i32 1}
!4 = !{!"clang version 13.0.0"}
!5 = !{!6, !6, i64 0}
!6 = !{!"omnipotent char", !7, i64 0}
!7 = !{!"Simple C/C++ TBAA"}
!8 = distinct !{!8, !9}
!9 = !{!"llvm.loop.mustprogress"}
!10 = distinct !{!10, !9, !11}
!11 = !{!"llvm.loop.isvectorized", i32 1}
!12 = distinct !{!12, !9, !13, !11}
!13 = !{!"llvm.loop.unroll.runtime.disable"}
!14 = !{!15, !15, i64 0}
!15 = !{!"double", !6, i64 0}
